---
triple:          'arm64-apple-darwin'
binary-path:     '/Users/suzm/Classes/4803/4803-heat/main_2d'
relocations:
  - { offset: 0x8745, size: 0x8, addend: 0x0, symName: __ZStL8__ioinit, symObjAddr: 0x3E737, symBinAddr: 0x10000C000, symSize: 0x0 }
  - { offset: 0x8C22, size: 0x8, addend: 0x0, symName: __ZNSt11__copy_moveILb0ELb0ESt26random_access_iterator_tagE12__assign_oneIfKfEEvPT_PT0_, symObjAddr: 0x20B0, symBinAddr: 0x100005F88, symSize: 0x28 }
  - { offset: 0x8C6C, size: 0x8, addend: 0x0, symName: __ZNSt11__copy_moveILb0ELb1ESt26random_access_iterator_tagE8__copy_mIKffEEPT0_PT_S7_S5_, symObjAddr: 0x2020, symBinAddr: 0x100005EF8, symSize: 0x90 }
  - { offset: 0x8CD6, size: 0x8, addend: 0x0, symName: __ZSt14__copy_move_a2ILb0EPKfPfET1_T0_S4_S3_, symObjAddr: 0x1FF4, symBinAddr: 0x100005ECC, symSize: 0x2C }
  - { offset: 0x8D3E, size: 0x8, addend: 0x0, symName: __ZNK9__gnu_cxx17__normal_iteratorIPKfSt6vectorIfSaIfEEE4baseEv, symObjAddr: 0x1FE0, symBinAddr: 0x100005EB8, symSize: 0x14 }
  - { offset: 0x8D62, size: 0x8, addend: 0x0, symName: __ZSt12__niter_wrapIPfET_RKS1_S1_, symObjAddr: 0x1FC8, symBinAddr: 0x100005EA0, symSize: 0x18 }
  - { offset: 0x8D9B, size: 0x8, addend: 0x0, symName: __ZSt14__copy_move_a1ILb0EPKfPfET1_T0_S4_S3_, symObjAddr: 0x1F9C, symBinAddr: 0x100005E74, symSize: 0x2C }
  - { offset: 0x8DFF, size: 0x8, addend: 0x0, symName: __ZSt12__niter_baseIPfET_S1_, symObjAddr: 0x1F88, symBinAddr: 0x100005E60, symSize: 0x14 }
  - { offset: 0x8E30, size: 0x8, addend: 0x0, symName: __ZSt12__niter_baseIPKfSt6vectorIfSaIfEEET_N9__gnu_cxx17__normal_iteratorIS5_T0_EE, symObjAddr: 0x1F68, symBinAddr: 0x100005E40, symSize: 0x20 }
  - { offset: 0x8E6A, size: 0x8, addend: 0x0, symName: __ZSt13__copy_move_aILb0EN9__gnu_cxx17__normal_iteratorIPKfSt6vectorIfSaIfEEEEPfET1_T0_SA_S9_, symObjAddr: 0x1F08, symBinAddr: 0x100005DE0, symSize: 0x60 }
  - { offset: 0x8ECE, size: 0x8, addend: 0x0, symName: __ZSt12__miter_baseIN9__gnu_cxx17__normal_iteratorIPKfSt6vectorIfSaIfEEEEET_S8_, symObjAddr: 0x1EF4, symBinAddr: 0x100005DCC, symSize: 0x14 }
  - { offset: 0x8EFF, size: 0x8, addend: 0x0, symName: __ZSt4copyIN9__gnu_cxx17__normal_iteratorIPKfSt6vectorIfSaIfEEEEPfET0_T_SA_S9_, symObjAddr: 0x1EAC, symBinAddr: 0x100005D84, symSize: 0x48 }
  - { offset: 0x8F59, size: 0x8, addend: 0x0, symName: __ZNSt20__uninitialized_copyILb1EE13__uninit_copyIN9__gnu_cxx17__normal_iteratorIPKfSt6vectorIfSaIfEEEEPfEET0_T_SC_SB_, symObjAddr: 0x1E80, symBinAddr: 0x100005D58, symSize: 0x2C }
  - { offset: 0x8FB0, size: 0x8, addend: 0x0, symName: __ZSt18uninitialized_copyIN9__gnu_cxx17__normal_iteratorIPKfSt6vectorIfSaIfEEEEPfET0_T_SA_S9_, symObjAddr: 0x1E44, symBinAddr: 0x100005D1C, symSize: 0x3C }
  - { offset: 0x904E, size: 0x8, addend: 0x0, symName: __ZN9__gnu_cxx17__normal_iteratorIPKfSt6vectorIfSaIfEEEC1ERKS2_, symObjAddr: 0x1E1C, symBinAddr: 0x100005CF4, symSize: 0x28 }
  - { offset: 0x908A, size: 0x8, addend: 0x0, symName: __ZSt9__fill_a1IPffEN9__gnu_cxx11__enable_ifIXsrSt11__is_scalarIT0_E7__valueEvE6__typeET_S8_RKS4_, symObjAddr: 0x1DC4, symBinAddr: 0x100005C9C, symSize: 0x58 }
  - { offset: 0x90F4, size: 0x8, addend: 0x0, symName: __ZSt22__uninitialized_copy_aIN9__gnu_cxx17__normal_iteratorIPKfSt6vectorIfSaIfEEEEPffET0_T_SA_S9_RSaIT1_E, symObjAddr: 0x1D94, symBinAddr: 0x100005C6C, symSize: 0x30 }
  - { offset: 0x9163, size: 0x8, addend: 0x0, symName: __ZNKSt6vectorIfSaIfEE3endEv, symObjAddr: 0x1D6C, symBinAddr: 0x100005C44, symSize: 0x28 }
  - { offset: 0x918B, size: 0x8, addend: 0x0, symName: __ZNKSt6vectorIfSaIfEE5beginEv, symObjAddr: 0x1D48, symBinAddr: 0x100005C20, symSize: 0x24 }
  - { offset: 0x91C6, size: 0x8, addend: 0x0, symName: __ZNKSt12_Vector_baseIfSaIfEE19_M_get_Tp_allocatorEv, symObjAddr: 0x1D34, symBinAddr: 0x100005C0C, symSize: 0x14 }
  - { offset: 0x91EA, size: 0x8, addend: 0x0, symName: __ZSt8__fill_aIPffEvT_S1_RKT0_, symObjAddr: 0x1D04, symBinAddr: 0x100005BDC, symSize: 0x30 }
  - { offset: 0x926D, size: 0x8, addend: 0x0, symName: __ZNSt6vectorIfSaIfEEC1ERKS1_, symObjAddr: 0x1BF0, symBinAddr: 0x100005AC8, symSize: 0x114 }
  - { offset: 0x9371, size: 0x8, addend: 0x0, symName: __ZSt7forwardIRKSt6vectorIfSaIfEEEOT_RNSt16remove_referenceIS5_E4typeE, symObjAddr: 0x1BDC, symBinAddr: 0x100005AB4, symSize: 0x14 }
  - { offset: 0x93A5, size: 0x8, addend: 0x0, symName: __ZNK9__gnu_cxx17__normal_iteratorIPKSt6vectorIfSaIfEES1_IS3_SaIS3_EEE4baseEv, symObjAddr: 0x1BC8, symBinAddr: 0x100005AA0, symSize: 0x14 }
  - { offset: 0x93C9, size: 0x8, addend: 0x0, symName: __ZSt10__fill_n_aIPfmfET_S1_T0_RKT1_St26random_access_iterator_tag, symObjAddr: 0x1B64, symBinAddr: 0x100005A3C, symSize: 0x64 }
  - { offset: 0x9449, size: 0x8, addend: 0x0, symName: __ZSt10_ConstructISt6vectorIfSaIfEEJRKS2_EEvPT_DpOT0_, symObjAddr: 0x1AE8, symBinAddr: 0x1000059C0, symSize: 0x7C }
  - { offset: 0x9495, size: 0x8, addend: 0x0, symName: __ZNK9__gnu_cxx17__normal_iteratorIPKSt6vectorIfSaIfEES1_IS3_SaIS3_EEEdeEv, symObjAddr: 0x1AD0, symBinAddr: 0x1000059A8, symSize: 0x18 }
  - { offset: 0x94BD, size: 0x8, addend: 0x0, symName: __ZN9__gnu_cxx17__normal_iteratorIPKSt6vectorIfSaIfEES1_IS3_SaIS3_EEEppEv, symObjAddr: 0x1AA8, symBinAddr: 0x100005980, symSize: 0x28 }
  - { offset: 0x94E7, size: 0x8, addend: 0x0, symName: __ZN9__gnu_cxxneIPKSt6vectorIfSaIfEES1_IS3_SaIS3_EEEEbRKNS_17__normal_iteratorIT_T0_EESD_, symObjAddr: 0x1A64, symBinAddr: 0x10000593C, symSize: 0x44 }
  - { offset: 0x9531, size: 0x8, addend: 0x0, symName: __ZSt18__do_uninit_fill_nIPSt6vectorIfSaIfEEmS2_ET_S4_T0_RKT1_, symObjAddr: 0x19D4, symBinAddr: 0x1000058AC, symSize: 0x90 }
  - { offset: 0x95A8, size: 0x8, addend: 0x0, symName: __ZNSt15__new_allocatorISt6vectorIfSaIfEEE8allocateEmPKv, symObjAddr: 0x1944, symBinAddr: 0x10000581C, symSize: 0x90 }
  - { offset: 0x9626, size: 0x8, addend: 0x0, symName: __ZSt6fill_nIPfmfET_S1_T0_RKT1_, symObjAddr: 0x18FC, symBinAddr: 0x1000057D4, symSize: 0x48 }
  - { offset: 0x96AC, size: 0x8, addend: 0x0, symName: __ZNSt15__new_allocatorIfE8allocateEmPKv, symObjAddr: 0x1880, symBinAddr: 0x100005758, symSize: 0x7C }
  - { offset: 0x972A, size: 0x8, addend: 0x0, symName: __ZSt16__do_uninit_copyIN9__gnu_cxx17__normal_iteratorIPKSt6vectorIfSaIfEES2_IS4_SaIS4_EEEEPS4_ET0_T_SC_SB_, symObjAddr: 0x17D8, symBinAddr: 0x1000056B0, symSize: 0xA8 }
  - { offset: 0x9790, size: 0x8, addend: 0x0, symName: __ZSt8_DestroyISt6vectorIfSaIfEEEvPT_, symObjAddr: 0x17B8, symBinAddr: 0x100005690, symSize: 0x20 }
  - { offset: 0x97C0, size: 0x8, addend: 0x0, symName: __ZSt11__addressofISt6vectorIfSaIfEEEPT_RS3_, symObjAddr: 0x17A4, symBinAddr: 0x10000567C, symSize: 0x14 }
  - { offset: 0x97F0, size: 0x8, addend: 0x0, symName: __ZNSt22__uninitialized_fill_nILb0EE15__uninit_fill_nIPSt6vectorIfSaIfEEmS4_EET_S6_T0_RKT1_, symObjAddr: 0x1778, symBinAddr: 0x100005650, symSize: 0x2C }
  - { offset: 0x9857, size: 0x8, addend: 0x0, symName: __ZNSt15__new_allocatorISt6vectorIfSaIfEEE10deallocateEPS2_m, symObjAddr: 0x173C, symBinAddr: 0x100005614, symSize: 0x3C }
  - { offset: 0x98CE, size: 0x8, addend: 0x0, symName: __ZNSt22__uninitialized_fill_nILb1EE15__uninit_fill_nIPfmfEET_S3_T0_RKT1_, symObjAddr: 0x1710, symBinAddr: 0x1000055E8, symSize: 0x2C }
  - { offset: 0x9935, size: 0x8, addend: 0x0, symName: __ZNSt15__new_allocatorIfE10deallocateEPfm, symObjAddr: 0x16E0, symBinAddr: 0x1000055B8, symSize: 0x30 }
  - { offset: 0x99AC, size: 0x8, addend: 0x0, symName: __ZNSt20__uninitialized_copyILb0EE13__uninit_copyIN9__gnu_cxx17__normal_iteratorIPKSt6vectorIfSaIfEES4_IS6_SaIS6_EEEEPS6_EET0_T_SE_SD_, symObjAddr: 0x16B4, symBinAddr: 0x10000558C, symSize: 0x2C }
  - { offset: 0x9A03, size: 0x8, addend: 0x0, symName: __ZNSt12_Destroy_auxILb0EE9__destroyIPSt6vectorIfSaIfEEEEvT_S6_, symObjAddr: 0x1668, symBinAddr: 0x100005540, symSize: 0x4C }
  - { offset: 0x9A42, size: 0x8, addend: 0x0, symName: __ZSt20uninitialized_fill_nIPSt6vectorIfSaIfEEmS2_ET_S4_T0_RKT1_, symObjAddr: 0x1638, symBinAddr: 0x100005510, symSize: 0x30 }
  - { offset: 0x9AE7, size: 0x8, addend: 0x0, symName: __ZNSt12_Vector_baseISt6vectorIfSaIfEESaIS2_EE11_M_allocateEm, symObjAddr: 0x15E8, symBinAddr: 0x1000054C0, symSize: 0x50 }
  - { offset: 0x9B61, size: 0x8, addend: 0x0, symName: __ZNSt12_Vector_baseISt6vectorIfSaIfEESaIS2_EE17_Vector_impl_dataC2Ev, symObjAddr: 0x15BC, symBinAddr: 0x100005494, symSize: 0x2C }
  - { offset: 0x9BAE, size: 0x8, addend: 0x0, symName: __ZNSt12_Destroy_auxILb1EE9__destroyIPfEEvT_S3_, symObjAddr: 0x15A4, symBinAddr: 0x10000547C, symSize: 0x18 }
  - { offset: 0x9BDF, size: 0x8, addend: 0x0, symName: __ZSt20uninitialized_fill_nIPfmfET_S1_T0_RKT1_, symObjAddr: 0x1570, symBinAddr: 0x100005448, symSize: 0x34 }
  - { offset: 0x9C84, size: 0x8, addend: 0x0, symName: __ZNSt12_Vector_baseIfSaIfEE11_M_allocateEm, symObjAddr: 0x1520, symBinAddr: 0x1000053F8, symSize: 0x50 }
  - { offset: 0x9CFE, size: 0x8, addend: 0x0, symName: __ZNSt12_Vector_baseIfSaIfEE17_Vector_impl_dataC2Ev, symObjAddr: 0x14F4, symBinAddr: 0x1000053CC, symSize: 0x2C }
  - { offset: 0x9D3D, size: 0x8, addend: 0x0, symName: __ZSt3minImERKT_S2_S2_, symObjAddr: 0x14BC, symBinAddr: 0x100005394, symSize: 0x38 }
  - { offset: 0x9D90, size: 0x8, addend: 0x0, symName: __ZSt18uninitialized_copyIN9__gnu_cxx17__normal_iteratorIPKSt6vectorIfSaIfEES2_IS4_SaIS4_EEEEPS4_ET0_T_SC_SB_, symObjAddr: 0x1488, symBinAddr: 0x100005360, symSize: 0x34 }
  - { offset: 0x9E2E, size: 0x8, addend: 0x0, symName: __ZN9__gnu_cxx17__normal_iteratorIPKSt6vectorIfSaIfEES1_IS3_SaIS3_EEEC1ERKS5_, symObjAddr: 0x1460, symBinAddr: 0x100005338, symSize: 0x28 }
  - { offset: 0x9E6A, size: 0x8, addend: 0x0, symName: __ZSt8_DestroyIPSt6vectorIfSaIfEEEvT_S4_, symObjAddr: 0x1438, symBinAddr: 0x100005310, symSize: 0x28 }
  - { offset: 0x9EA9, size: 0x8, addend: 0x0, symName: __ZSt24__uninitialized_fill_n_aIPSt6vectorIfSaIfEEmS2_S2_ET_S4_T0_RKT1_RSaIT2_E, symObjAddr: 0x1408, symBinAddr: 0x1000052E0, symSize: 0x30 }
  - { offset: 0x9F21, size: 0x8, addend: 0x0, symName: __ZNSt12_Vector_baseISt6vectorIfSaIfEESaIS2_EE13_M_deallocateEPS2_m, symObjAddr: 0x13B0, symBinAddr: 0x100005288, symSize: 0x58 }
  - { offset: 0x9F9B, size: 0x8, addend: 0x0, symName: __ZNSt12_Vector_baseISt6vectorIfSaIfEESaIS2_EE17_M_create_storageEm, symObjAddr: 0x1344, symBinAddr: 0x10000521C, symSize: 0x6C }
  - { offset: 0x9FF7, size: 0x8, addend: 0x0, symName: __ZNSt12_Vector_baseISt6vectorIfSaIfEESaIS2_EE12_Vector_implC1ERKS3_, symObjAddr: 0x12F8, symBinAddr: 0x1000051D0, symSize: 0x4C }
  - { offset: 0xA091, size: 0x8, addend: 0x0, symName: __ZNSt6vectorIS_IfSaIfEESaIS1_EE11_S_max_sizeERKS2_, symObjAddr: 0x129C, symBinAddr: 0x100005174, symSize: 0x5C }
  - { offset: 0xA13E, size: 0x8, addend: 0x0, symName: __ZSt8_DestroyIPfEvT_S1_, symObjAddr: 0x1274, symBinAddr: 0x10000514C, symSize: 0x28 }
  - { offset: 0xA17D, size: 0x8, addend: 0x0, symName: __ZSt24__uninitialized_fill_n_aIPfmffET_S1_T0_RKT1_RSaIT2_E, symObjAddr: 0x1244, symBinAddr: 0x10000511C, symSize: 0x30 }
  - { offset: 0xA1F5, size: 0x8, addend: 0x0, symName: __ZNSt12_Vector_baseIfSaIfEE13_M_deallocateEPfm, symObjAddr: 0x11EC, symBinAddr: 0x1000050C4, symSize: 0x58 }
  - { offset: 0xA26F, size: 0x8, addend: 0x0, symName: __ZNSt12_Vector_baseIfSaIfEE17_M_create_storageEm, symObjAddr: 0x118C, symBinAddr: 0x100005064, symSize: 0x60 }
  - { offset: 0xA2CB, size: 0x8, addend: 0x0, symName: __ZNSt12_Vector_baseIfSaIfEE12_Vector_implC1ERKS0_, symObjAddr: 0x1140, symBinAddr: 0x100005018, symSize: 0x4C }
  - { offset: 0xA365, size: 0x8, addend: 0x0, symName: __ZNSt6vectorIfSaIfEE11_S_max_sizeERKS0_, symObjAddr: 0x10EC, symBinAddr: 0x100004FC4, symSize: 0x54 }
  - { offset: 0xA412, size: 0x8, addend: 0x0, symName: __ZSt22__uninitialized_copy_aIN9__gnu_cxx17__normal_iteratorIPKSt6vectorIfSaIfEES2_IS4_SaIS4_EEEEPS4_S4_ET0_T_SC_SB_RSaIT1_E, symObjAddr: 0x10BC, symBinAddr: 0x100004F94, symSize: 0x30 }
  - { offset: 0xA481, size: 0x8, addend: 0x0, symName: __ZNKSt6vectorIS_IfSaIfEESaIS1_EE3endEv, symObjAddr: 0x1094, symBinAddr: 0x100004F6C, symSize: 0x28 }
  - { offset: 0xA4A9, size: 0x8, addend: 0x0, symName: __ZNKSt6vectorIS_IfSaIfEESaIS1_EE5beginEv, symObjAddr: 0x1070, symBinAddr: 0x100004F48, symSize: 0x24 }
  - { offset: 0xA4E4, size: 0x8, addend: 0x0, symName: __ZNKSt12_Vector_baseISt6vectorIfSaIfEESaIS2_EE19_M_get_Tp_allocatorEv, symObjAddr: 0x105C, symBinAddr: 0x100004F34, symSize: 0x14 }
  - { offset: 0xA544, size: 0x8, addend: 0x0, symName: __ZNSt12_Vector_baseISt6vectorIfSaIfEESaIS2_EE19_M_get_Tp_allocatorEv, symObjAddr: 0x1048, symBinAddr: 0x100004F20, symSize: 0x14 }
  - { offset: 0xA56C, size: 0x8, addend: 0x0, symName: __ZNSt6vectorIS_IfSaIfEESaIS1_EE18_M_fill_initializeEmRKS1_, symObjAddr: 0xFF0, symBinAddr: 0x100004EC8, symSize: 0x58 }
  - { offset: 0xA5D5, size: 0x8, addend: 0x0, symName: __ZNSt12_Vector_baseISt6vectorIfSaIfEESaIS2_EED2Ev, symObjAddr: 0xF94, symBinAddr: 0x100004E6C, symSize: 0x5C }
  - { offset: 0xA62B, size: 0x8, addend: 0x0, symName: __ZNSt12_Vector_baseISt6vectorIfSaIfEESaIS2_EEC2EmRKS3_, symObjAddr: 0xF40, symBinAddr: 0x100004E18, symSize: 0x54 }
  - { offset: 0xA683, size: 0x8, addend: 0x0, symName: __ZNSt12_Vector_baseISt6vectorIfSaIfEESaIS2_EE12_Vector_implD1Ev, symObjAddr: 0xF14, symBinAddr: 0x100004DEC, symSize: 0x2C }
  - { offset: 0xA6C4, size: 0x8, addend: 0x0, symName: __ZNSt6vectorIS_IfSaIfEESaIS1_EE17_S_check_init_lenEmRKS2_, symObjAddr: 0xE90, symBinAddr: 0x100004D68, symSize: 0x84 }
  - { offset: 0xA790, size: 0x8, addend: 0x0, symName: __ZNSt15__new_allocatorISt6vectorIfSaIfEEED2Ev, symObjAddr: 0xE7C, symBinAddr: 0x100004D54, symSize: 0x14 }
  - { offset: 0xA800, size: 0x8, addend: 0x0, symName: __ZNSt12_Vector_baseIfSaIfEE19_M_get_Tp_allocatorEv, symObjAddr: 0xE68, symBinAddr: 0x100004D40, symSize: 0x14 }
  - { offset: 0xA828, size: 0x8, addend: 0x0, symName: __ZNSt6vectorIfSaIfEE18_M_fill_initializeEmRKf, symObjAddr: 0xE10, symBinAddr: 0x100004CE8, symSize: 0x58 }
  - { offset: 0xA891, size: 0x8, addend: 0x0, symName: __ZNSt12_Vector_baseIfSaIfEED2Ev, symObjAddr: 0xDC0, symBinAddr: 0x100004C98, symSize: 0x50 }
  - { offset: 0xA8E7, size: 0x8, addend: 0x0, symName: __ZNSt12_Vector_baseIfSaIfEEC2EmRKS0_, symObjAddr: 0xD6C, symBinAddr: 0x100004C44, symSize: 0x54 }
  - { offset: 0xA93F, size: 0x8, addend: 0x0, symName: __ZNSt12_Vector_baseIfSaIfEE12_Vector_implD1Ev, symObjAddr: 0xD40, symBinAddr: 0x100004C18, symSize: 0x2C }
  - { offset: 0xA980, size: 0x8, addend: 0x0, symName: __ZNSt6vectorIfSaIfEE17_S_check_init_lenEmRKS0_, symObjAddr: 0xCBC, symBinAddr: 0x100004B94, symSize: 0x84 }
  - { offset: 0xAA4C, size: 0x8, addend: 0x0, symName: __ZNSt15__new_allocatorIfED2Ev, symObjAddr: 0xCA8, symBinAddr: 0x100004B80, symSize: 0x14 }
  - { offset: 0xAA86, size: 0x8, addend: 0x0, symName: __ZSt7setfillIcESt8_SetfillIT_ES1_, symObjAddr: 0xC94, symBinAddr: 0x100004B6C, symSize: 0x14 }
  - { offset: 0xAAC0, size: 0x8, addend: 0x0, symName: __ZNKSt6vectorIfSaIfEE4sizeEv, symObjAddr: 0xC6C, symBinAddr: 0x100004B44, symSize: 0x28 }
  - { offset: 0xAAE8, size: 0x8, addend: 0x0, symName: __ZNKSt6vectorIS_IfSaIfEESaIS1_EE4sizeEv, symObjAddr: 0xC38, symBinAddr: 0x100004B10, symSize: 0x34 }
  - { offset: 0xAB35, size: 0x8, addend: 0x0, symName: __ZNSt6vectorIS_IfSaIfEESaIS1_EEC1ERKS3_, symObjAddr: 0xB24, symBinAddr: 0x1000049FC, symSize: 0x114 }
  - { offset: 0xAC37, size: 0x8, addend: 0x0, symName: __ZNSt6vectorIfSaIfEEixEm, symObjAddr: 0xAFC, symBinAddr: 0x1000049D4, symSize: 0x28 }
  - { offset: 0xAC6F, size: 0x8, addend: 0x0, symName: __ZNSt6vectorIS_IfSaIfEESaIS1_EEixEm, symObjAddr: 0xAC8, symBinAddr: 0x1000049A0, symSize: 0x34 }
  - { offset: 0xACC8, size: 0x8, addend: 0x0, symName: __ZNSt6vectorIS_IfSaIfEESaIS1_EED1Ev, symObjAddr: 0xA6C, symBinAddr: 0x100004944, symSize: 0x5C }
  - { offset: 0xAD5D, size: 0x8, addend: 0x0, symName: __ZNSt6vectorIS_IfSaIfEESaIS1_EEC1EmRKS1_RKS2_, symObjAddr: 0x9FC, symBinAddr: 0x1000048D4, symSize: 0x70 }
  - { offset: 0xADEB, size: 0x8, addend: 0x0, symName: __ZNSt6vectorIfSaIfEED1Ev, symObjAddr: 0x9A0, symBinAddr: 0x100004878, symSize: 0x5C }
  - { offset: 0xAE80, size: 0x8, addend: 0x0, symName: __ZNSt6vectorIfSaIfEEC1EmRKfRKS0_, symObjAddr: 0x930, symBinAddr: 0x100004808, symSize: 0x70 }
  - { offset: 0xAEF0, size: 0x8, addend: 0x0, symName: __Z14output_to_fileSt6vectorIS_IfSaIfEESaIS1_EEiii, symObjAddr: 0x65C, symBinAddr: 0x100004534, symSize: 0x2D4 }
  - { offset: 0xAFCF, size: 0x8, addend: 0x0, symName: __Z7print_xSt6vectorIS_IfSaIfEESaIS1_EEf, symObjAddr: 0x554, symBinAddr: 0x10000442C, symSize: 0x108 }
  - { offset: 0xB050, size: 0x8, addend: 0x0, symName: _main, symObjAddr: 0x58, symBinAddr: 0x100003F30, symSize: 0x4FC }
  - { offset: 0xB31F, size: 0x8, addend: 0x0, symName: __ZSt4setwi, symObjAddr: 0x44, symBinAddr: 0x100003F1C, symSize: 0x14 }
  - { offset: 0xB34D, size: 0x8, addend: 0x0, symName: __ZdlPvS_, symObjAddr: 0x2C, symBinAddr: 0x100003F04, symSize: 0x18 }
  - { offset: 0xB381, size: 0x8, addend: 0x0, symName: __ZnwmPv, symObjAddr: 0x14, symBinAddr: 0x100003EEC, symSize: 0x18 }
  - { offset: 0xB3B0, size: 0x8, addend: 0x0, symName: __ZSt17__size_to_integerm, symObjAddr: 0x0, symBinAddr: 0x100003ED8, symSize: 0x14 }
...
